Certificate:
    Data:
        Version: 3 (0x2)
        Serial Number:
            6c:a3:ef:0e:2c:a7:25:af:b4:50:82:36:16:1a:0b:90
        Signature Algorithm: sha256WithRSAEncryption
        Issuer: CN=Easy-RSA CA
        Validity
            Not Before: Jan  3 21:54:29 2024 GMT
            Not After : Apr  7 21:54:29 2026 GMT
        Subject: CN=server
        Subject Public Key Info:
            Public Key Algorithm: rsaEncryption
                Public-Key: (4096 bit)
                Modulus:
                    00:c5:88:b5:f9:ec:51:3d:fc:ef:7f:78:fb:73:bb:
                    2e:07:0d:ae:f2:83:90:7d:f3:8d:63:b9:d0:53:b5:
                    33:7b:7c:af:5a:bc:0d:bd:76:32:1b:f1:9a:56:e2:
                    97:8e:9c:d6:f6:5a:bc:df:cb:0c:28:17:29:bc:5a:
                    c6:2f:32:7c:87:0f:a6:61:43:1c:48:00:90:00:53:
                    a0:6b:30:5d:ef:f1:5d:c9:11:de:ee:0b:e8:45:c1:
                    1e:ce:78:4d:5e:09:d2:d8:7c:f6:a4:62:da:b4:85:
                    78:42:de:c5:8b:df:f5:57:80:10:74:77:3a:cf:c9:
                    dd:8b:e6:18:9b:49:e8:76:91:3a:56:68:69:ca:3a:
                    cd:b4:4a:9d:8e:62:38:fc:c7:57:2c:7b:96:e3:3a:
                    b0:b8:54:e9:39:1a:42:02:68:f1:3d:2e:42:76:ab:
                    0e:f7:38:4b:c8:c9:77:60:cd:ed:fb:19:35:d5:c7:
                    9e:8b:e5:3f:a8:fc:6a:1d:85:42:f2:40:4a:9b:5e:
                    c2:e7:4e:39:e9:c4:f8:45:4c:9c:53:a5:63:1d:e2:
                    da:9e:6b:c4:bb:e1:00:7a:d0:8c:26:34:da:0d:0a:
                    01:70:c3:7d:ab:fd:0c:1a:ca:ea:bf:63:3f:04:d8:
                    5f:78:50:67:ad:1b:43:f3:2f:59:b0:8c:74:bc:fe:
                    26:17:3a:6f:7f:92:6f:17:fe:bb:b5:65:f1:0f:57:
                    dc:c8:4f:46:00:d8:11:56:cd:86:25:2f:45:f9:c0:
                    62:08:fb:57:a9:1a:f6:f3:72:0d:08:70:5a:c9:07:
                    39:5c:b1:4d:32:8b:09:ef:1f:32:f5:70:a9:1b:6a:
                    ec:a2:6f:12:3b:64:e8:3e:77:49:77:91:38:a3:0f:
                    3d:15:e8:a9:a7:a7:19:ec:5c:bc:57:8c:2a:19:fc:
                    67:93:1c:3f:69:bf:40:1b:a5:79:d6:ec:cb:c6:ad:
                    92:27:00:f3:04:c1:99:2d:5b:89:cd:e0:66:d9:3f:
                    c9:a6:8b:3c:2a:7f:9d:8e:11:25:7f:41:04:17:59:
                    9f:b1:bd:9e:1c:01:e3:a2:8e:5d:73:e4:8b:ff:c0:
                    c3:fb:a8:16:38:d1:61:12:e9:c9:57:08:03:02:66:
                    5c:6b:02:05:46:53:18:1f:5e:6a:d7:dc:1a:89:e1:
                    94:0a:e2:01:36:da:ef:9a:90:86:7c:37:6f:df:28:
                    ec:0f:d5:12:f8:7b:62:97:02:28:2a:d2:2b:cb:e1:
                    3c:ff:bd:e5:54:28:99:49:10:98:0b:fb:68:47:45:
                    59:6f:f2:4e:40:f9:df:00:92:81:95:76:5f:b8:af:
                    1c:04:18:b1:24:39:a6:e6:b2:1e:fe:a7:99:ea:7a:
                    2b:5f:d1
                Exponent: 65537 (0x10001)
        X509v3 extensions:
            X509v3 Basic Constraints: 
                CA:FALSE
            X509v3 Subject Key Identifier: 
                50:02:93:21:E7:0C:C4:30:02:A1:A9:9F:1A:E4:D6:E2:04:19:C9:5C
            X509v3 Authority Key Identifier: 
                keyid:21:3E:55:FA:83:A4:FB:5C:75:26:F8:61:C5:87:93:8A:A5:18:4D:18
                DirName:/CN=Easy-RSA CA
                serial:32:64:9E:98:10:CD:E8:F5:E8:CA:9B:39:36:F6:28:13:36:96:68:7C
            X509v3 Extended Key Usage: 
                TLS Web Server Authentication
            X509v3 Key Usage: 
                Digital Signature, Key Encipherment
            X509v3 Subject Alternative Name: 
                DNS:server
    Signature Algorithm: sha256WithRSAEncryption
    Signature Value:
        b6:d6:9b:92:2d:61:8d:83:b9:42:98:4a:4b:ce:c9:78:45:b0:
        c2:73:25:ec:76:7b:b3:bf:e7:85:70:0c:ff:89:dc:5e:6f:e9:
        8f:48:cf:a2:4b:d4:a8:05:c9:04:dd:b4:be:a1:64:b9:c0:85:
        8d:55:9d:04:c3:89:ff:00:ba:1f:08:f0:88:aa:c9:a2:e2:74:
        3c:33:ee:07:1b:a4:a4:11:8d:54:08:15:c8:5a:db:f5:ab:0e:
        58:30:9a:d4:32:69:b9:d7:0b:2b:80:21:44:a9:5b:9f:3c:ef:
        73:38:78:c4:77:e8:8d:f7:7e:fd:fc:fc:71:6e:c2:13:77:a1:
        70:96:8d:f7:a4:19:75:d5:29:43:c8:c7:b9:b6:1c:43:bb:90:
        f8:f7:ad:36:2d:4e:fd:a3:f3:a1:e1:9d:b5:6e:0d:92:81:98:
        45:22:6d:6d:2e:8b:4d:82:c4:3e:bf:bc:b8:f9:fb:0c:d0:39:
        9a:e7:23:df:58:a6:ed:3c:84:60:75:8a:07:41:d6:2a:9c:36:
        8c:0d:22:7b:be:b7:40:a9:49:cf:75:db:59:b6:0c:0f:7e:71:
        18:17:03:28:51:45:90:f6:c4:13:ef:df:d2:a6:90:f3:54:cb:
        e3:d6:bb:5f:50:b1:3f:42:a1:f6:58:c4:62:12:ce:7f:72:c8:
        1f:15:76:27:ea:f5:88:a8:c9:d4:6e:84:d1:5d:14:c8:b7:9a:
        20:e9:71:d1:6f:0a:71:fc:66:c1:d9:ce:85:81:42:af:91:95:
        78:69:77:c8:11:01:5c:36:99:1b:92:a6:f5:06:75:38:a9:32:
        6d:ad:fb:75:72:48:af:a4:eb:6c:e8:90:49:2d:14:86:61:f1:
        e0:9d:bd:5d:b0:a6:03:46:73:84:b0:18:62:60:b0:71:49:75:
        68:f1:74:bc:6f:79:8c:1d:a3:0b:11:88:d9:f2:c5:16:1d:7d:
        8d:5a:a9:6a:08:08:ad:0b:95:71:c0:3b:e6:29:3e:fd:d4:ae:
        6f:be:e3:50:b5:d4:77:e0:ed:a7:76:48:4c:7f:92:a8:a9:45:
        d0:75:9a:86:6c:5d:2a:f0:7d:14:3f:a6:51:77:a2:00:5c:1b:
        87:9a:ea:24:f7:df:75:0b:b7:f4:ae:52:5f:00:09:02:96:b8:
        1c:d3:9b:53:21:da:e2:f2:51:bb:95:5c:34:92:4b:9a:ff:fb:
        62:c0:b0:af:24:60:e0:ce:dc:bd:b2:a1:b5:0c:12:08:76:79:
        f2:fa:a2:59:3b:bc:e8:74:68:e4:5b:58:1b:e2:c1:0b:ec:ce:
        2d:1d:8c:f0:6e:e0:d6:f7:1a:2b:f3:ba:8a:df:d8:9f:45:77:
        1b:11:a4:09:ab:28:28:a1
-----BEGIN CERTIFICATE-----
MIIFZzCCA0+gAwIBAgIQbKPvDiynJa+0UII2FhoLkDANBgkqhkiG9w0BAQsFADAW
MRQwEgYDVQQDDAtFYXN5LVJTQSBDQTAeFw0yNDAxMDMyMTU0MjlaFw0yNjA0MDcy
MTU0MjlaMBExDzANBgNVBAMMBnNlcnZlcjCCAiIwDQYJKoZIhvcNAQEBBQADggIP
ADCCAgoCggIBAMWItfnsUT387394+3O7LgcNrvKDkH3zjWO50FO1M3t8r1q8Db12
Mhvxmlbil46c1vZavN/LDCgXKbxaxi8yfIcPpmFDHEgAkABToGswXe/xXckR3u4L
6EXBHs54TV4J0th89qRi2rSFeELexYvf9VeAEHR3Os/J3YvmGJtJ6HaROlZoaco6
zbRKnY5iOPzHVyx7luM6sLhU6TkaQgJo8T0uQnarDvc4S8jJd2DN7fsZNdXHnovl
P6j8ah2FQvJASptewudOOenE+EVMnFOlYx3i2p5rxLvhAHrQjCY02g0KAXDDfav9
DBrK6r9jPwTYX3hQZ60bQ/MvWbCMdLz+Jhc6b3+Sbxf+u7Vl8Q9X3MhPRgDYEVbN
hiUvRfnAYgj7V6ka9vNyDQhwWskHOVyxTTKLCe8fMvVwqRtq7KJvEjtk6D53SXeR
OKMPPRXoqaenGexcvFeMKhn8Z5McP2m/QBuledbsy8atkicA8wTBmS1bic3gZtk/
yaaLPCp/nY4RJX9BBBdZn7G9nhwB46KOXXPki//Aw/uoFjjRYRLpyVcIAwJmXGsC
BUZTGB9eatfcGonhlAriATba75qQhnw3b98o7A/VEvh7YpcCKCrSK8vhPP+95VQo
mUkQmAv7aEdFWW/yTkD53wCSgZV2X7ivHAQYsSQ5puayHv6nmep6K1/RAgMBAAGj
gbUwgbIwCQYDVR0TBAIwADAdBgNVHQ4EFgQUUAKTIecMxDACoamfGuTW4gQZyVww
UQYDVR0jBEowSIAUIT5V+oOk+1x1JvhhxYeTiqUYTRihGqQYMBYxFDASBgNVBAMM
C0Vhc3ktUlNBIENBghQyZJ6YEM3o9ejKmzk29igTNpZofDATBgNVHSUEDDAKBggr
BgEFBQcDATALBgNVHQ8EBAMCBaAwEQYDVR0RBAowCIIGc2VydmVyMA0GCSqGSIb3
DQEBCwUAA4ICAQC21puSLWGNg7lCmEpLzsl4RbDCcyXsdnuzv+eFcAz/idxeb+mP
SM+iS9SoBckE3bS+oWS5wIWNVZ0Ew4n/ALofCPCIqsmi4nQ8M+4HG6SkEY1UCBXI
Wtv1qw5YMJrUMmm51wsrgCFEqVufPO9zOHjEd+iN9379/PxxbsITd6Fwlo33pBl1
1SlDyMe5thxDu5D49602LU79o/Oh4Z21bg2SgZhFIm1tLotNgsQ+v7y4+fsM0Dma
5yPfWKbtPIRgdYoHQdYqnDaMDSJ7vrdAqUnPddtZtgwPfnEYFwMoUUWQ9sQT79/S
ppDzVMvj1rtfULE/QqH2WMRiEs5/csgfFXYn6vWIqMnUboTRXRTIt5og6XHRbwpx
/GbB2c6FgUKvkZV4aXfIEQFcNpkbkqb1BnU4qTJtrft1ckivpOts6JBJLRSGYfHg
nb1dsKYDRnOEsBhiYLBxSXVo8XS8b3mMHaMLEYjZ8sUWHX2NWqlqCAitC5VxwDvm
KT791K5vvuNQtdR34O2ndkhMf5KoqUXQdZqGbF0q8H0UP6ZRd6IAXBuHmuok9991
C7f0rlJfAAkClrgc05tTIdri8lG7lVw0kkua//tiwLCvJGDgzty9sqG1DBIIdnny
+qJZO7zodGjkW1gb4sEL7M4tHYzwbuDW9xor87qK39ifRXcbEaQJqygooQ==
-----END CERTIFICATE-----
